target datalayout = "e-m:e-p270:32:32-p271:32:32-p272:64:64-i64:64-i128:128-f80:128-n8:16:32:64-S128"
target triple = "x86_64-pc-linux-gnu"

%class.DfgVertex = type { ptr, %class.V3ListLinks, ptr, ptr, ptr, ptr, %class.VDfgType, i32, ptr }
%class.V3ListLinks = type { ptr, ptr }
%class.VDfgType = type { i16 }
%class.V3ErrorCode = type { i8 }
%class.DfgVertexVar = type <{ %class.DfgVertexVariadic, ptr, i8, i8, i8, [5 x i8] }>
%class.DfgVertexVariadic = type { %class.DfgVertex, ptr, i32, i32 }

@.str.9 = private unnamed_addr constant [111 x i8] c"generated/home/dtcxzyw/WorkSpace/Projects/compilers/llvm-opt-benchmark/bench/verilator/verilator/src/V3Dfg.cpp\00", align 1
@.str.11 = private unnamed_addr constant [57 x i8] c"There should only be one DfgVertexVar for a given AstVar\00", align 1

; Function Attrs: mustprogress nounwind uwtable
define linkonce_odr dso_local void @_ZN11V3ErrorCodeC2ENS_2enE(ptr noundef nonnull align 1 dereferenceable(1) %0, i8 noundef zeroext %1) unnamed_addr #5 comdat align 2 {
  %3 = alloca ptr, align 8
  %4 = alloca i8, align 1
  store ptr %0, ptr %3, align 8
  store i8 %1, ptr %4, align 1
  %5 = load ptr, ptr %3, align 8
  %6 = getelementptr inbounds %class.V3ErrorCode, ptr %5, i32 0, i32 0
  %7 = load i8, ptr %4, align 1
  store i8 %7, ptr %6, align 1
  ret void
}

; Function Attrs: mustprogress nounwind uwtable
define linkonce_odr dso_local noundef ptr @_ZNK12DfgVertexVar4varpEv(ptr noundef nonnull align 8 dereferenceable(99) %0) #5 comdat align 2 {
  %2 = alloca ptr, align 8
  store ptr %0, ptr %2, align 8
  %3 = load ptr, ptr %2, align 8
  %4 = getelementptr inbounds %class.DfgVertexVar, ptr %3, i32 0, i32 1
  %5 = load ptr, ptr %4, align 8
  ret ptr %5
}

; Function Attrs: mustprogress uwtable
define dso_local noundef zeroext i1 @_ZNK12DfgVertexVar10selfEqualsERK9DfgVertex(ptr noundef nonnull align 8 dereferenceable(99) %0, ptr noundef nonnull align 8 dereferenceable(72) %1) unnamed_addr #4 align 2 {
  %3 = alloca ptr, align 8
  %4 = alloca ptr, align 8
  %5 = alloca %class.V3ErrorCode, align 1
  store ptr %0, ptr %3, align 8
  store ptr %1, ptr %4, align 8
  %6 = load ptr, ptr %3, align 8
  br label %7

7:                                                ; preds = %2
  %8 = call noundef ptr @_ZNK12DfgVertexVar4varpEv(ptr noundef nonnull align 8 dereferenceable(99) %6)
  %9 = load ptr, ptr %4, align 8
  %10 = call noundef ptr @_ZNK9DfgVertex2asI12DfgVertexVarEEPKT_v(ptr noundef nonnull align 8 dereferenceable(72) %9)
  %11 = call noundef ptr @_ZNK12DfgVertexVar4varpEv(ptr noundef nonnull align 8 dereferenceable(99) %10)
  %12 = icmp ne ptr %8, %11
  %13 = xor i1 %12, true
  %14 = xor i1 %13, true
  %15 = xor i1 %14, true
  br i1 %15, label %16, label %22

16:                                               ; preds = %7
  call void @_ZN11V3ErrorCodeC2ENS_2enE(ptr noundef nonnull align 1 dereferenceable(1) %5, i8 noundef zeroext 4)
  %17 = getelementptr inbounds %class.V3ErrorCode, ptr %5, i32 0, i32 0
  %18 = load i8, ptr %17, align 1
  %19 = call noundef nonnull align 8 dereferenceable(112) ptr @_ZN7V3Error19v3errorPrepFileLineB5cxx11E11V3ErrorCodePKcib(i8 %18, ptr noundef @.str.9, i32 noundef 452, i1 noundef zeroext true)
  %20 = call noundef nonnull align 8 dereferenceable(112) ptr @_ZN7V3Error10v3errorStrB5cxx11Ev()
  %21 = call noundef nonnull align 8 dereferenceable(8) ptr @_ZStlsISt11char_traitsIcEERSt13basic_ostreamIcT_ES5_PKc(ptr noundef nonnull align 8 dereferenceable(8) %20, ptr noundef @.str.11)
  call void @_ZNK9DfgVertex15v3errorEndFatalERNSt7__cxx1119basic_ostringstreamIcSt11char_traitsIcESaIcEEE(ptr noundef nonnull align 8 dereferenceable(72) %6, ptr noundef nonnull align 8 dereferenceable(112) %21) #17
  unreachable

22:                                               ; preds = %7
  br label %23

23:                                               ; preds = %22
  ret i1 false
}