; Function Attrs: mustprogress uwtable
define dso_local noundef zeroext i1 @_ZNK12DfgVertexVar10selfEqualsERK9DfgVertex(ptr noundef nonnull align 8 dereferenceable(99) %0, ptr noundef nonnull align 8 dereferenceable(72) %1) unnamed_addr #3 align 2 {
  %3 = getelementptr inbounds i8, ptr %0, i64 88
  %4 = load ptr, ptr %3, align 8
  %5 = tail call noundef ptr @_ZNK9DfgVertex2asI12DfgVertexVarEEPKT_v(ptr noundef nonnull align 8 dereferenceable(72) %1)
  %6 = getelementptr inbounds i8, ptr %5, i64 88
  %7 = load ptr, ptr %6, align 8
  %.not = icmp eq ptr %4, %7
  br i1 %.not, label %8, label %12

8:                                                ; preds = %2
  %9 = tail call noundef nonnull align 8 dereferenceable(112) ptr @_ZN7V3Error19v3errorPrepFileLineB5cxx11E11V3ErrorCodePKcib(i8 4, ptr noundef nonnull @.str.9, i32 noundef 452, i1 noundef zeroext true)
  %10 = tail call noundef nonnull align 8 dereferenceable(112) ptr @_ZN7V3Error10v3errorStrB5cxx11Ev()
  %11 = tail call noundef nonnull align 8 dereferenceable(8) ptr @_ZStlsISt11char_traitsIcEERSt13basic_ostreamIcT_ES5_PKc(ptr noundef nonnull align 8 dereferenceable(8) %10, ptr noundef nonnull @.str.11)
  tail call void @_ZNK9DfgVertex15v3errorEndFatalERNSt7__cxx1119basic_ostringstreamIcSt11char_traitsIcESaIcEEE(ptr noundef nonnull align 8 dereferenceable(72) %0, ptr noundef nonnull align 8 dereferenceable(112) %11) #29
  unreachable

12:                                               ; preds = %2
  ret i1 false
}